target datalayout = "e-m:e-p270:32:32-p271:32:32-p272:64:64-i64:64-i128:128-f80:128-n8:16:32:64-S128"
target triple = "x86_64-pc-linux-gnu"

; Function Attrs: inlinehint mustprogress nounwind uwtable
define internal noundef signext i8 @_ZL9U_FAILURE10UErrorCode(i32 noundef %0) #4 {
  %2 = alloca i32, align 4
  store i32 %0, ptr %2, align 4, !tbaa !19
  %3 = load i32, ptr %2, align 4, !tbaa !19
  %4 = icmp sgt i32 %3, 0
  %5 = zext i1 %4 to i8
  ret i8 %5
}

; Function Attrs: mustprogress uwtable
define noundef i64 @_ZNK6icu_7715IslamicCalendar23handleComputeMonthStartEiiaR10UErrorCode(ptr noundef nonnull align 8 dereferenceable(192) %0, i32 noundef %1, i32 noundef %2, i8 noundef signext %3, ptr noundef nonnull align 4 dereferenceable(4) %4) unnamed_addr #1 align 2 {
  %6 = alloca i64, align 8
  %7 = alloca ptr, align 8
  %8 = alloca i32, align 4
  %9 = alloca i32, align 4
  %10 = alloca i8, align 1
  %11 = alloca ptr, align 8
  store ptr %0, ptr %7, align 8, !tbaa !3
  store i32 %1, ptr %8, align 4, !tbaa !17
  store i32 %2, ptr %9, align 4, !tbaa !17
  store i8 %3, ptr %10, align 1, !tbaa !28
  store ptr %4, ptr %11, align 8, !tbaa !12
  %12 = load ptr, ptr %7, align 8
  %13 = load ptr, ptr %11, align 8, !tbaa !12
  %14 = load i32, ptr %13, align 4, !tbaa !19
  %15 = call noundef signext i8 @_ZL9U_FAILURE10UErrorCode(i32 noundef %14)
  %16 = icmp ne i8 %15, 0
  br i1 %16, label %17, label %18

17:                                               ; preds = %5
  store i64 0, ptr %6, align 8
  br label %66

18:                                               ; preds = %5
  %19 = load i32, ptr %9, align 4, !tbaa !17
  %20 = icmp sgt i32 %19, 11
  br i1 %20, label %21, label %32

21:                                               ; preds = %18
  %22 = load i32, ptr %8, align 4, !tbaa !17
  %23 = load i32, ptr %9, align 4, !tbaa !17
  %24 = sdiv i32 %23, 12
  %25 = call signext i8 @uprv_add32_overflow_77(i32 noundef %22, i32 noundef %24, ptr noundef %8)
  %26 = icmp ne i8 %25, 0
  br i1 %26, label %27, label %29

27:                                               ; preds = %21
  %28 = load ptr, ptr %11, align 8, !tbaa !12
  store i32 1, ptr %28, align 4, !tbaa !19
  store i64 0, ptr %6, align 8
  br label %66

29:                                               ; preds = %21
  %30 = load i32, ptr %9, align 4, !tbaa !17
  %31 = srem i32 %30, 12
  store i32 %31, ptr %9, align 4, !tbaa !17
  br label %51

32:                                               ; preds = %18
  %33 = load i32, ptr %9, align 4, !tbaa !17
  %34 = icmp slt i32 %33, 0
  br i1 %34, label %35, label %50

35:                                               ; preds = %32
  %36 = load i32, ptr %9, align 4, !tbaa !17
  %37 = add nsw i32 %36, 1
  store i32 %37, ptr %9, align 4, !tbaa !17
  %38 = load i32, ptr %8, align 4, !tbaa !17
  %39 = load i32, ptr %9, align 4, !tbaa !17
  %40 = sdiv i32 %39, 12
  %41 = sub nsw i32 %40, 1
  %42 = call signext i8 @uprv_add32_overflow_77(i32 noundef %38, i32 noundef %41, ptr noundef %8)
  %43 = icmp ne i8 %42, 0
  br i1 %43, label %44, label %46

44:                                               ; preds = %35
  %45 = load ptr, ptr %11, align 8, !tbaa !12
  store i32 1, ptr %45, align 4, !tbaa !19
  store i64 0, ptr %6, align 8
  br label %66

46:                                               ; preds = %35
  %47 = load i32, ptr %9, align 4, !tbaa !17
  %48 = srem i32 %47, 12
  %49 = add nsw i32 %48, 11
  store i32 %49, ptr %9, align 4, !tbaa !17
  br label %50

50:                                               ; preds = %46, %32
  br label %51

51:                                               ; preds = %50, %29
  %52 = load i32, ptr %8, align 4, !tbaa !17
  %53 = load i32, ptr %9, align 4, !tbaa !17
  %54 = load ptr, ptr %11, align 8, !tbaa !12
  %55 = load ptr, ptr %12, align 8, !tbaa !8
  %56 = getelementptr inbounds ptr, ptr %55, i64 57
  %57 = load ptr, ptr %56, align 8
  %58 = call noundef i64 %57(ptr noundef nonnull align 8 dereferenceable(192) %12, i32 noundef %52, i32 noundef %53, ptr noundef nonnull align 4 dereferenceable(4) %54)
  %59 = load ptr, ptr %12, align 8, !tbaa !8
  %60 = getelementptr inbounds ptr, ptr %59, i64 58
  %61 = load ptr, ptr %60, align 8
  %62 = call noundef i32 %61(ptr noundef nonnull align 8 dereferenceable(192) %12)
  %63 = sext i32 %62 to i64
  %64 = add nsw i64 %58, %63
  %65 = sub nsw i64 %64, 1
  store i64 %65, ptr %6, align 8
  br label %66

66:                                               ; preds = %51, %44, %27, %17
  %67 = load i64, ptr %6, align 8
  ret i64 %67
}