; Function Attrs: mustprogress uwtable
define noundef range(i64 -9223372036854775808, 9223372036854775807) i64 @_ZNK6icu_7715IslamicCalendar23handleComputeMonthStartEiiaR10UErrorCode(ptr noundef nonnull align 8 dereferenceable(192) %0, i32 noundef %1, i32 noundef %2, i8 signext %3, ptr noundef nonnull align 4 dereferenceable(4) %4) unnamed_addr #1 align 2 {
  %6 = alloca i32, align 4
  store i32 %1, ptr %6, align 4, !tbaa !6
  %7 = load i32, ptr %4, align 4, !tbaa !9
  %8 = icmp slt i32 %7, 1
  br i1 %8, label %9, label %39

9:                                                ; preds = %5
  %10 = icmp sgt i32 %2, 11
  br i1 %10, label %11, label %16

11:                                               ; preds = %9
  %12 = udiv i32 %2, 12
  %13 = urem i32 %2, 12
  %14 = call signext i8 @uprv_add32_overflow_77(i32 noundef %1, i32 noundef %12, ptr noundef nonnull %6)
  %.not16 = icmp eq i8 %14, 0
  br i1 %.not16, label %26, label %15

15:                                               ; preds = %11
  store i32 1, ptr %4, align 4, !tbaa !9
  br label %39

16:                                               ; preds = %9
  %17 = icmp slt i32 %2, 0
  br i1 %17, label %18, label %26

18:                                               ; preds = %16
  %.nonneg = xor i32 %2, -1
  %19 = udiv i32 %.nonneg, 12
  %20 = urem i32 %.nonneg, 12
  %21 = xor i32 %19, -1
  %22 = call signext i8 @uprv_add32_overflow_77(i32 noundef %1, i32 noundef %21, ptr noundef nonnull %6)
  %.not15 = icmp eq i8 %22, 0
  br i1 %.not15, label %24, label %23

23:                                               ; preds = %18
  store i32 1, ptr %4, align 4, !tbaa !9
  br label %39

24:                                               ; preds = %18
  %25 = sub nuw nsw i32 11, %20
  br label %26

26:                                               ; preds = %11, %16, %24
  %.013 = phi i32 [ %25, %24 ], [ %2, %16 ], [ %13, %11 ]
  %27 = load i32, ptr %6, align 4, !tbaa !6
  %28 = load ptr, ptr %0, align 8, !tbaa !3
  %29 = getelementptr inbounds nuw i8, ptr %28, i64 456
  %30 = load ptr, ptr %29, align 8
  %31 = call noundef i64 %30(ptr noundef nonnull align 8 dereferenceable(192) %0, i32 noundef %27, i32 noundef %.013, ptr noundef nonnull align 4 dereferenceable(4) %4)
  %32 = load ptr, ptr %0, align 8, !tbaa !3
  %33 = getelementptr inbounds nuw i8, ptr %32, i64 464
  %34 = load ptr, ptr %33, align 8
  %35 = call noundef i32 %34(ptr noundef nonnull align 8 dereferenceable(192) %0)
  %36 = sext i32 %35 to i64
  %37 = add i64 %31, -1
  %38 = add i64 %37, %36
  br label %39

39:                                               ; preds = %5, %26, %23, %15
  %.0 = phi i64 [ 0, %15 ], [ %38, %26 ], [ 0, %23 ], [ 0, %5 ]
  ret i64 %.0
}